target datalayout = "e-m:e-p270:32:32-p271:32:32-p272:64:64-i64:64-i128:128-f80:128-n8:16:32:64-S128"
target triple = "x86_64-pc-linux-gnu"

%"struct.grpc_core::DNSResolver::LookupTaskHandle" = type { [2 x i64] }
%"class.std::__cxx11::basic_string" = type { %"struct.std::__cxx11::basic_string<char>::_Alloc_hider", i64, %union.anon }
%"struct.std::__cxx11::basic_string<char>::_Alloc_hider" = type { ptr }
%union.anon = type { i64, [8 x i8] }
%"class.absl::lts_20240722::AlphaNum" = type { %"class.std::basic_string_view", [32 x i8] }
%"class.std::basic_string_view" = type { i64, ptr }
%"class.std::initializer_list" = type { ptr, i64 }

@.str.2 = private unnamed_addr constant [2 x i8] c"{\00", align 1
@.str.3 = private unnamed_addr constant [2 x i8] c",\00", align 1
@.str.4 = private unnamed_addr constant [2 x i8] c"}\00", align 1

; Function Attrs: noinline noreturn nounwind uwtable
define linkonce_odr hidden void @__clang_call_terminate(ptr noundef %0) #8 comdat {
  %2 = call ptr @__cxa_begin_catch(ptr %0) #3
  call void @_ZSt9terminatev() #15
  unreachable
}

; Function Attrs: mustprogress nounwind uwtable
define linkonce_odr noundef i64 @_ZNSt11char_traitsIcE6lengthEPKc(ptr noundef %0) #5 comdat align 2 {
  %2 = alloca ptr, align 8
  store ptr %0, ptr %2, align 8, !tbaa !20
  %3 = load ptr, ptr %2, align 8, !tbaa !20
  %4 = call i64 @strlen(ptr noundef %3) #3
  ret i64 %4
}

; Function Attrs: mustprogress nounwind uwtable
define linkonce_odr void @_ZNSt17basic_string_viewIcSt11char_traitsIcEEC2Ev(ptr noundef nonnull align 8 dereferenceable(16) %0) unnamed_addr #5 comdat align 2 {
  %2 = alloca ptr, align 8
  store ptr %0, ptr %2, align 8, !tbaa !38
  %3 = load ptr, ptr %2, align 8
  %4 = getelementptr inbounds nuw %"class.std::basic_string_view", ptr %3, i32 0, i32 0
  store i64 0, ptr %4, align 8, !tbaa !39
  %5 = getelementptr inbounds nuw %"class.std::basic_string_view", ptr %3, i32 0, i32 1
  store ptr null, ptr %5, align 8, !tbaa !41
  ret void
}

; Function Attrs: mustprogress nounwind uwtable
define linkonce_odr void @_ZNSt17basic_string_viewIcSt11char_traitsIcEEC2EPKc(ptr noundef nonnull align 8 dereferenceable(16) %0, ptr noundef nonnull %1) unnamed_addr #5 comdat align 2 personality ptr @__gxx_personality_v0 {
  %3 = alloca ptr, align 8
  %4 = alloca ptr, align 8
  store ptr %0, ptr %3, align 8, !tbaa !38
  store ptr %1, ptr %4, align 8, !tbaa !20
  %5 = load ptr, ptr %3, align 8
  %6 = getelementptr inbounds nuw %"class.std::basic_string_view", ptr %5, i32 0, i32 0
  %7 = load ptr, ptr %4, align 8, !tbaa !20
  %8 = invoke noundef i64 @_ZNSt11char_traitsIcE6lengthEPKc(ptr noundef %7)
          to label %9 unwind label %12

9:                                                ; preds = %2
  store i64 %8, ptr %6, align 8, !tbaa !39
  %10 = getelementptr inbounds nuw %"class.std::basic_string_view", ptr %5, i32 0, i32 1
  %11 = load ptr, ptr %4, align 8, !tbaa !20
  store ptr %11, ptr %10, align 8, !tbaa !41
  ret void

12:                                               ; preds = %2
  %13 = landingpad { ptr, i32 }
          catch ptr null
  %14 = extractvalue { ptr, i32 } %13, 0
  call void @__clang_call_terminate(ptr %14) #15
  unreachable
}

; Function Attrs: mustprogress nounwind uwtable
define linkonce_odr { i64, ptr } @_ZNK4absl12lts_202407228AlphaNum5PieceEv(ptr noundef nonnull align 8 dereferenceable(48) %0) #5 comdat align 2 {
  %2 = alloca %"class.std::basic_string_view", align 8
  %3 = alloca ptr, align 8
  store ptr %0, ptr %3, align 8, !tbaa !14
  %4 = load ptr, ptr %3, align 8
  %5 = getelementptr inbounds nuw %"class.absl::lts_20240722::AlphaNum", ptr %4, i32 0, i32 0
  call void @llvm.memcpy.p0.p0.i64(ptr align 8 %2, ptr align 8 %5, i64 16, i1 false), !tbaa.struct !57
  %6 = load { i64, ptr }, ptr %2, align 8
  ret { i64, ptr } %6
}

; Function Attrs: mustprogress nounwind uwtable
define linkonce_odr void @_ZNSt17basic_string_viewIcSt11char_traitsIcEEC2EPKcm(ptr noundef nonnull align 8 dereferenceable(16) %0, ptr noundef %1, i64 noundef %2) unnamed_addr #5 comdat align 2 {
  %4 = alloca ptr, align 8
  %5 = alloca ptr, align 8
  %6 = alloca i64, align 8
  store ptr %0, ptr %4, align 8, !tbaa !38
  store ptr %1, ptr %5, align 8, !tbaa !20
  store i64 %2, ptr %6, align 8, !tbaa !12
  %7 = load ptr, ptr %4, align 8
  %8 = getelementptr inbounds nuw %"class.std::basic_string_view", ptr %7, i32 0, i32 0
  %9 = load i64, ptr %6, align 8, !tbaa !12
  store i64 %9, ptr %8, align 8, !tbaa !39
  %10 = getelementptr inbounds nuw %"class.std::basic_string_view", ptr %7, i32 0, i32 1
  %11 = load ptr, ptr %5, align 8, !tbaa !20
  store ptr %11, ptr %10, align 8, !tbaa !41
  ret void
}

; Function Attrs: mustprogress nounwind uwtable
define linkonce_odr { i64, ptr } @_ZN4absl12lts_2024072218NullSafeStringViewEPKc(ptr noundef %0) #5 comdat {
  %2 = alloca %"class.std::basic_string_view", align 8
  %3 = alloca ptr, align 8
  store ptr %0, ptr %3, align 8, !tbaa !20
  %4 = load ptr, ptr %3, align 8, !tbaa !20
  %5 = icmp ne ptr %4, null
  br i1 %5, label %6, label %8

6:                                                ; preds = %1
  %7 = load ptr, ptr %3, align 8, !tbaa !20
  call void @_ZNSt17basic_string_viewIcSt11char_traitsIcEEC2EPKc(ptr noundef nonnull align 8 dereferenceable(16) %2, ptr noundef %7) #3
  br label %9

8:                                                ; preds = %1
  call void @_ZNSt17basic_string_viewIcSt11char_traitsIcEEC2Ev(ptr noundef nonnull align 8 dereferenceable(16) %2) #3
  br label %9

9:                                                ; preds = %8, %6
  %10 = load { i64, ptr }, ptr %2, align 8
  ret { i64, ptr } %10
}

; Function Attrs: inlinehint mustprogress uwtable
define linkonce_odr void @_ZN4absl12lts_202407226StrCatIJEEENSt7__cxx1112basic_stringIcSt11char_traitsIcESaIcEEERKNS0_8AlphaNumESA_SA_SA_SA_DpRKT_(ptr dead_on_unwind noalias writable sret(%"class.std::__cxx11::basic_string") align 8 %0, ptr noundef nonnull align 8 dereferenceable(48) %1, ptr noundef nonnull align 8 dereferenceable(48) %2, ptr noundef nonnull align 8 dereferenceable(48) %3, ptr noundef nonnull align 8 dereferenceable(48) %4, ptr noundef nonnull align 8 dereferenceable(48) %5) #6 comdat {
  %7 = alloca ptr, align 8
  %8 = alloca ptr, align 8
  %9 = alloca ptr, align 8
  %10 = alloca ptr, align 8
  %11 = alloca ptr, align 8
  %12 = alloca ptr, align 8
  %13 = alloca %"class.std::initializer_list", align 8
  %14 = alloca [5 x %"class.std::basic_string_view"], align 8
  store ptr %0, ptr %7, align 8
  store ptr %1, ptr %8, align 8, !tbaa !14
  store ptr %2, ptr %9, align 8, !tbaa !14
  store ptr %3, ptr %10, align 8, !tbaa !14
  store ptr %4, ptr %11, align 8, !tbaa !14
  store ptr %5, ptr %12, align 8, !tbaa !14
  call void @llvm.lifetime.start.p0(i64 80, ptr %14) #3
  %15 = load ptr, ptr %8, align 8, !tbaa !14
  %16 = call { i64, ptr } @_ZNK4absl12lts_202407228AlphaNum5PieceEv(ptr noundef nonnull align 8 dereferenceable(48) %15)
  %17 = getelementptr inbounds nuw { i64, ptr }, ptr %14, i32 0, i32 0
  %18 = extractvalue { i64, ptr } %16, 0
  store i64 %18, ptr %17, align 8
  %19 = getelementptr inbounds nuw { i64, ptr }, ptr %14, i32 0, i32 1
  %20 = extractvalue { i64, ptr } %16, 1
  store ptr %20, ptr %19, align 8
  %21 = getelementptr inbounds %"class.std::basic_string_view", ptr %14, i64 1
  %22 = load ptr, ptr %9, align 8, !tbaa !14
  %23 = call { i64, ptr } @_ZNK4absl12lts_202407228AlphaNum5PieceEv(ptr noundef nonnull align 8 dereferenceable(48) %22)
  %24 = getelementptr inbounds nuw { i64, ptr }, ptr %21, i32 0, i32 0
  %25 = extractvalue { i64, ptr } %23, 0
  store i64 %25, ptr %24, align 8
  %26 = getelementptr inbounds nuw { i64, ptr }, ptr %21, i32 0, i32 1
  %27 = extractvalue { i64, ptr } %23, 1
  store ptr %27, ptr %26, align 8
  %28 = getelementptr inbounds %"class.std::basic_string_view", ptr %14, i64 2
  %29 = load ptr, ptr %10, align 8, !tbaa !14
  %30 = call { i64, ptr } @_ZNK4absl12lts_202407228AlphaNum5PieceEv(ptr noundef nonnull align 8 dereferenceable(48) %29)
  %31 = getelementptr inbounds nuw { i64, ptr }, ptr %28, i32 0, i32 0
  %32 = extractvalue { i64, ptr } %30, 0
  store i64 %32, ptr %31, align 8
  %33 = getelementptr inbounds nuw { i64, ptr }, ptr %28, i32 0, i32 1
  %34 = extractvalue { i64, ptr } %30, 1
  store ptr %34, ptr %33, align 8
  %35 = getelementptr inbounds %"class.std::basic_string_view", ptr %14, i64 3
  %36 = load ptr, ptr %11, align 8, !tbaa !14
  %37 = call { i64, ptr } @_ZNK4absl12lts_202407228AlphaNum5PieceEv(ptr noundef nonnull align 8 dereferenceable(48) %36)
  %38 = getelementptr inbounds nuw { i64, ptr }, ptr %35, i32 0, i32 0
  %39 = extractvalue { i64, ptr } %37, 0
  store i64 %39, ptr %38, align 8
  %40 = getelementptr inbounds nuw { i64, ptr }, ptr %35, i32 0, i32 1
  %41 = extractvalue { i64, ptr } %37, 1
  store ptr %41, ptr %40, align 8
  %42 = getelementptr inbounds %"class.std::basic_string_view", ptr %14, i64 4
  %43 = load ptr, ptr %12, align 8, !tbaa !14
  %44 = call { i64, ptr } @_ZNK4absl12lts_202407228AlphaNum5PieceEv(ptr noundef nonnull align 8 dereferenceable(48) %43)
  %45 = getelementptr inbounds nuw { i64, ptr }, ptr %42, i32 0, i32 0
  %46 = extractvalue { i64, ptr } %44, 0
  store i64 %46, ptr %45, align 8
  %47 = getelementptr inbounds nuw { i64, ptr }, ptr %42, i32 0, i32 1
  %48 = extractvalue { i64, ptr } %44, 1
  store ptr %48, ptr %47, align 8
  %49 = getelementptr inbounds nuw %"class.std::initializer_list", ptr %13, i32 0, i32 0
  store ptr %14, ptr %49, align 8, !tbaa !16
  %50 = getelementptr inbounds nuw %"class.std::initializer_list", ptr %13, i32 0, i32 1
  store i64 5, ptr %50, align 8, !tbaa !19
  %51 = getelementptr inbounds nuw { ptr, i64 }, ptr %13, i32 0, i32 0
  %52 = load ptr, ptr %51, align 8
  %53 = getelementptr inbounds nuw { ptr, i64 }, ptr %13, i32 0, i32 1
  %54 = load i64, ptr %53, align 8
  call void @_ZN4absl12lts_2024072216strings_internal9CatPiecesB5cxx11ESt16initializer_listISt17basic_string_viewIcSt11char_traitsIcEEE(ptr dead_on_unwind writable sret(%"class.std::__cxx11::basic_string") align 8 %0, ptr %52, i64 %54)
  call void @llvm.lifetime.end.p0(i64 80, ptr %14) #3
  ret void
}

; Function Attrs: mustprogress uwtable
define linkonce_odr void @_ZN4absl12lts_202407228AlphaNumC2El(ptr noundef nonnull align 8 dereferenceable(48) %0, i64 noundef %1) unnamed_addr #4 comdat align 2 {
  %3 = alloca ptr, align 8
  %4 = alloca i64, align 8
  store ptr %0, ptr %3, align 8, !tbaa !14
  store i64 %1, ptr %4, align 8, !tbaa !12
  %5 = load ptr, ptr %3, align 8
  %6 = getelementptr inbounds nuw %"class.absl::lts_20240722::AlphaNum", ptr %5, i32 0, i32 0
  %7 = getelementptr inbounds nuw %"class.absl::lts_20240722::AlphaNum", ptr %5, i32 0, i32 1
  %8 = getelementptr inbounds [32 x i8], ptr %7, i64 0, i64 0
  %9 = load i64, ptr %4, align 8, !tbaa !12
  %10 = getelementptr inbounds nuw %"class.absl::lts_20240722::AlphaNum", ptr %5, i32 0, i32 1
  %11 = getelementptr inbounds [32 x i8], ptr %10, i64 0, i64 0
  %12 = call noundef ptr @_ZN4absl12lts_2024072216numbers_internal15FastIntToBufferElPc(i64 noundef %9, ptr noundef %11)
  %13 = getelementptr inbounds nuw %"class.absl::lts_20240722::AlphaNum", ptr %5, i32 0, i32 1
  %14 = getelementptr inbounds [32 x i8], ptr %13, i64 0, i64 0
  %15 = ptrtoint ptr %12 to i64
  %16 = ptrtoint ptr %14 to i64
  %17 = sub i64 %15, %16
  call void @_ZNSt17basic_string_viewIcSt11char_traitsIcEEC2EPKcm(ptr noundef nonnull align 8 dereferenceable(16) %6, ptr noundef %8, i64 noundef %17) #3
  ret void
}

; Function Attrs: mustprogress uwtable
define linkonce_odr void @_ZN4absl12lts_202407228AlphaNumC2EPKc(ptr noundef nonnull align 8 dereferenceable(48) %0, ptr noundef %1) unnamed_addr #4 comdat align 2 {
  %3 = alloca ptr, align 8
  %4 = alloca ptr, align 8
  store ptr %0, ptr %3, align 8, !tbaa !14
  store ptr %1, ptr %4, align 8, !tbaa !20
  %5 = load ptr, ptr %3, align 8
  %6 = load ptr, ptr %4, align 8, !tbaa !20
  %7 = call { i64, ptr } @_ZN4absl12lts_2024072218NullSafeStringViewEPKc(ptr noundef %6)
  %8 = getelementptr inbounds nuw { i64, ptr }, ptr %5, i32 0, i32 0
  %9 = extractvalue { i64, ptr } %7, 0
  store i64 %9, ptr %8, align 8
  %10 = getelementptr inbounds nuw { i64, ptr }, ptr %5, i32 0, i32 1
  %11 = extractvalue { i64, ptr } %7, 1
  store ptr %11, ptr %10, align 8
  ret void
}

; Function Attrs: mustprogress uwtable
define void @_ZN9grpc_core11DNSResolver14HandleToStringB5cxx11ENS0_16LookupTaskHandleE(ptr dead_on_unwind noalias writable sret(%"class.std::__cxx11::basic_string") align 8 %0, i64 %1, i64 %2) #4 align 2 {
  %4 = alloca ptr, align 8
  %5 = alloca %"struct.grpc_core::DNSResolver::LookupTaskHandle", align 8
  %6 = alloca %"class.absl::lts_20240722::AlphaNum", align 8
  %7 = alloca %"class.absl::lts_20240722::AlphaNum", align 8
  %8 = alloca %"class.absl::lts_20240722::AlphaNum", align 8
  %9 = alloca %"class.absl::lts_20240722::AlphaNum", align 8
  %10 = alloca %"class.absl::lts_20240722::AlphaNum", align 8
  store ptr %0, ptr %4, align 8
  %11 = getelementptr inbounds nuw { i64, i64 }, ptr %5, i32 0, i32 0
  store i64 %1, ptr %11, align 8
  %12 = getelementptr inbounds nuw { i64, i64 }, ptr %5, i32 0, i32 1
  store i64 %2, ptr %12, align 8
  call void @llvm.lifetime.start.p0(i64 48, ptr %6) #3
  call void @_ZN4absl12lts_202407228AlphaNumC2EPKc(ptr noundef nonnull align 8 dereferenceable(48) %6, ptr noundef @.str.2)
  call void @llvm.lifetime.start.p0(i64 48, ptr %7) #3
  %13 = getelementptr inbounds nuw %"struct.grpc_core::DNSResolver::LookupTaskHandle", ptr %5, i32 0, i32 0
  %14 = getelementptr inbounds [2 x i64], ptr %13, i64 0, i64 0
  %15 = load i64, ptr %14, align 8, !tbaa !12
  call void @_ZN4absl12lts_202407228AlphaNumC2El(ptr noundef nonnull align 8 dereferenceable(48) %7, i64 noundef %15)
  call void @llvm.lifetime.start.p0(i64 48, ptr %8) #3
  call void @_ZN4absl12lts_202407228AlphaNumC2EPKc(ptr noundef nonnull align 8 dereferenceable(48) %8, ptr noundef @.str.3)
  call void @llvm.lifetime.start.p0(i64 48, ptr %9) #3
  %16 = getelementptr inbounds nuw %"struct.grpc_core::DNSResolver::LookupTaskHandle", ptr %5, i32 0, i32 0
  %17 = getelementptr inbounds [2 x i64], ptr %16, i64 0, i64 1
  %18 = load i64, ptr %17, align 8, !tbaa !12
  call void @_ZN4absl12lts_202407228AlphaNumC2El(ptr noundef nonnull align 8 dereferenceable(48) %9, i64 noundef %18)
  call void @llvm.lifetime.start.p0(i64 48, ptr %10) #3
  call void @_ZN4absl12lts_202407228AlphaNumC2EPKc(ptr noundef nonnull align 8 dereferenceable(48) %10, ptr noundef @.str.4)
  call void @_ZN4absl12lts_202407226StrCatIJEEENSt7__cxx1112basic_stringIcSt11char_traitsIcESaIcEEERKNS0_8AlphaNumESA_SA_SA_SA_DpRKT_(ptr dead_on_unwind writable sret(%"class.std::__cxx11::basic_string") align 8 %0, ptr noundef nonnull align 8 dereferenceable(48) %6, ptr noundef nonnull align 8 dereferenceable(48) %7, ptr noundef nonnull align 8 dereferenceable(48) %8, ptr noundef nonnull align 8 dereferenceable(48) %9, ptr noundef nonnull align 8 dereferenceable(48) %10)
  call void @llvm.lifetime.end.p0(i64 48, ptr %10) #3
  call void @llvm.lifetime.end.p0(i64 48, ptr %9) #3
  call void @llvm.lifetime.end.p0(i64 48, ptr %8) #3
  call void @llvm.lifetime.end.p0(i64 48, ptr %7) #3
  call void @llvm.lifetime.end.p0(i64 48, ptr %6) #3
  ret void
}