; Function Attrs: mustprogress uwtable
define void @_ZN9grpc_core11DNSResolver14HandleToStringB5cxx11ENS0_16LookupTaskHandleE(ptr dead_on_unwind noalias writable sret(%"class.std::__cxx11::basic_string") align 8 %0, i64 %1, i64 %2) local_unnamed_addr #3 align 2 personality ptr @__gxx_personality_v0 {
  %4 = alloca [5 x %"class.std::basic_string_view"], align 8
  %5 = alloca %"class.absl::lts_20240722::AlphaNum", align 8
  %6 = alloca %"class.absl::lts_20240722::AlphaNum", align 8
  call void @llvm.lifetime.start.p0(i64 48, ptr nonnull %5) #10
  %7 = getelementptr inbounds nuw i8, ptr %5, i64 16
  %8 = call noundef ptr @_ZN4absl12lts_2024072216numbers_internal15FastIntToBufferElPc(i64 noundef %1, ptr noundef nonnull %7)
  %9 = ptrtoint ptr %8 to i64
  %10 = ptrtoint ptr %7 to i64
  %11 = sub i64 %9, %10
  store i64 %11, ptr %5, align 8, !tbaa !24
  %12 = getelementptr inbounds nuw i8, ptr %5, i64 8
  store ptr %7, ptr %12, align 8, !tbaa !27
  call void @llvm.lifetime.start.p0(i64 48, ptr nonnull %6) #10
  %13 = getelementptr inbounds nuw i8, ptr %6, i64 16
  %14 = call noundef ptr @_ZN4absl12lts_2024072216numbers_internal15FastIntToBufferElPc(i64 noundef %2, ptr noundef nonnull %13)
  %15 = ptrtoint ptr %14 to i64
  %16 = ptrtoint ptr %13 to i64
  %17 = sub i64 %15, %16
  store i64 %17, ptr %6, align 8, !tbaa !24
  %18 = getelementptr inbounds nuw i8, ptr %6, i64 8
  store ptr %13, ptr %18, align 8, !tbaa !27
  call void @llvm.lifetime.start.p0(i64 80, ptr nonnull %4) #10, !noalias !28
  store i64 1, ptr %4, align 8, !noalias !28
  %19 = getelementptr inbounds nuw i8, ptr %4, i64 8
  store ptr @.str.2, ptr %19, align 8, !noalias !28
  %20 = getelementptr inbounds nuw i8, ptr %4, i64 16
  %.sroa.0.0.copyload.i5.i = load i64, ptr %5, align 8, !tbaa !22, !noalias !28
  %.sroa.2.0.copyload.i7.i = load ptr, ptr %12, align 8, !tbaa !31, !noalias !28
  store i64 %.sroa.0.0.copyload.i5.i, ptr %20, align 8, !noalias !28
  %21 = getelementptr inbounds nuw i8, ptr %4, i64 24
  store ptr %.sroa.2.0.copyload.i7.i, ptr %21, align 8, !noalias !28
  %22 = getelementptr inbounds nuw i8, ptr %4, i64 32
  store i64 1, ptr %22, align 8, !noalias !28
  %23 = getelementptr inbounds nuw i8, ptr %4, i64 40
  store ptr @.str.3, ptr %23, align 8, !noalias !28
  %24 = getelementptr inbounds nuw i8, ptr %4, i64 48
  store i64 %17, ptr %24, align 8, !noalias !28
  %25 = getelementptr inbounds nuw i8, ptr %4, i64 56
  store ptr %13, ptr %25, align 8, !noalias !28
  %26 = getelementptr inbounds nuw i8, ptr %4, i64 64
  store i64 1, ptr %26, align 8, !noalias !28
  %27 = getelementptr inbounds nuw i8, ptr %4, i64 72
  store ptr @.str.4, ptr %27, align 8, !noalias !28
  call void @_ZN4absl12lts_2024072216strings_internal9CatPiecesB5cxx11ESt16initializer_listISt17basic_string_viewIcSt11char_traitsIcEEE(ptr dead_on_unwind writable sret(%"class.std::__cxx11::basic_string") align 8 %0, ptr nonnull %4, i64 5)
  call void @llvm.lifetime.end.p0(i64 80, ptr nonnull %4) #10, !noalias !28
  call void @llvm.lifetime.end.p0(i64 48, ptr nonnull %6) #10
  call void @llvm.lifetime.end.p0(i64 48, ptr nonnull %5) #10
  ret void
}